target datalayout = "e-m:e-p270:32:32-p271:32:32-p272:64:64-i64:64-i128:128-f80:128-n8:16:32:64-S128"
target triple = "x86_64-pc-linux-gnu"

%class.JfrStackTrace = type <{ ptr, ptr, i64, i64, i32, i32, i8, i8, i8, i8, [4 x i8] }>
%class.Thread = type { %class.ThreadShadow.base, i64, [43 x i64], ptr, ptr, i32, ptr, i64, i64, %class.ThreadLocalAllocBuffer, i64, %class.ThreadHeapSampler, %class.ThreadStatisticalInfo, %class.JfrThreadLocal, ptr, ptr, ptr, ptr, ptr, ptr, i64, i32, i32, ptr, i32, i32, i32, i32, i8, ptr }
%class.ThreadShadow.base = type <{ ptr, ptr, ptr, i32 }>
%class.ThreadLocalAllocBuffer = type <{ ptr, ptr, ptr, ptr, ptr, i64, i64, i64, i64, i32, i32, i32, i32, i64, %class.AdaptiveWeightedAverage, [4 x i8] }>
%class.AdaptiveWeightedAverage = type { float, i32, i32, i8, float }
%class.ThreadHeapSampler = type { i64 }
%class.ThreadStatisticalInfo = type { i64, i64 }
%class.JfrThreadLocal = type <{ ptr, ptr, ptr, ptr, ptr, ptr, ptr, ptr, ptr, ptr, %class.RefCountHandle, i64, i64, i64, i64, i64, i64, i64, i64, i64, i64, i64, i32, i32, i32, i16, i8, i8, i8, i8, i8, [5 x i8] }>
%class.RefCountHandle = type { ptr }

@_ZL23_leak_profiler_instance = internal global ptr null, align 8

; Function Attrs: mustprogress nounwind uwtable
define linkonce_odr hidden void @_ZN14JfrThreadLocal25set_cached_stack_trace_idEmm(ptr noundef nonnull align 8 dereferenceable(195) %0, i64 noundef %1, i64 noundef %2) #1 comdat align 2 {
  %4 = alloca ptr, align 8
  %5 = alloca i64, align 8
  %6 = alloca i64, align 8
  store ptr %0, ptr %4, align 8
  store i64 %1, ptr %5, align 8
  store i64 %2, ptr %6, align 8
  %7 = load ptr, ptr %4, align 8
  %8 = load i64, ptr %5, align 8
  %9 = getelementptr inbounds %class.JfrThreadLocal, ptr %7, i32 0, i32 15
  store i64 %8, ptr %9, align 8
  %10 = load i64, ptr %6, align 8
  %11 = getelementptr inbounds %class.JfrThreadLocal, ptr %7, i32 0, i32 16
  store i64 %10, ptr %11, align 8
  ret void
}

; Function Attrs: mustprogress nounwind uwtable
define hidden noundef i64 @_ZN23JfrStackTraceRepository3addERS_RK13JfrStackTrace(ptr noundef nonnull align 8 dereferenceable(16432) %0, ptr noundef nonnull align 8 dereferenceable(44) %1) #1 align 2 {
  %3 = alloca ptr, align 8
  %4 = alloca ptr, align 8
  %5 = alloca i64, align 8
  store ptr %0, ptr %3, align 8
  store ptr %1, ptr %4, align 8
  %6 = load ptr, ptr %3, align 8
  %7 = load ptr, ptr %4, align 8
  %8 = call noundef i64 @_ZN23JfrStackTraceRepository9add_traceERK13JfrStackTrace(ptr noundef nonnull align 8 dereferenceable(16432) %6, ptr noundef nonnull align 8 dereferenceable(44) %7)
  store i64 %8, ptr %5, align 8
  %9 = load i64, ptr %5, align 8
  %10 = icmp eq i64 %9, 0
  br i1 %10, label %11, label %16

11:                                               ; preds = %2
  %12 = load ptr, ptr %4, align 8
  call void @_ZNK13JfrStackTrace15resolve_linenosEv(ptr noundef nonnull align 8 dereferenceable(44) %12)
  %13 = load ptr, ptr %3, align 8
  %14 = load ptr, ptr %4, align 8
  %15 = call noundef i64 @_ZN23JfrStackTraceRepository9add_traceERK13JfrStackTrace(ptr noundef nonnull align 8 dereferenceable(16432) %13, ptr noundef nonnull align 8 dereferenceable(44) %14)
  store i64 %15, ptr %5, align 8
  br label %16

16:                                               ; preds = %11, %2
  %17 = load i64, ptr %5, align 8
  ret i64 %17
}

; Function Attrs: mustprogress nounwind uwtable
define internal noundef nonnull align 8 dereferenceable(16432) ptr @_ZL22leak_profiler_instancev() #1 {
  %1 = load ptr, ptr @_ZL23_leak_profiler_instance, align 8
  ret ptr %1
}

; Function Attrs: mustprogress nounwind uwtable
define linkonce_odr hidden noundef i64 @_ZNK13JfrStackTrace4hashEv(ptr noundef nonnull align 8 dereferenceable(44) %0) #1 comdat align 2 {
  %2 = alloca ptr, align 8
  store ptr %0, ptr %2, align 8
  %3 = load ptr, ptr %2, align 8
  %4 = getelementptr inbounds %class.JfrStackTrace, ptr %3, i32 0, i32 3
  %5 = load i64, ptr %4, align 8
  ret i64 %5
}

; Function Attrs: mustprogress nounwind uwtable
define linkonce_odr hidden noundef ptr @_ZNK14JfrThreadLocal11stackframesEv(ptr noundef nonnull align 8 dereferenceable(195) %0) #1 comdat align 2 {
  %2 = alloca ptr, align 8
  store ptr %0, ptr %2, align 8
  %3 = load ptr, ptr %2, align 8
  %4 = getelementptr inbounds %class.JfrThreadLocal, ptr %3, i32 0, i32 8
  %5 = load ptr, ptr %4, align 8
  %6 = icmp ne ptr %5, null
  br i1 %6, label %7, label %10

7:                                                ; preds = %1
  %8 = getelementptr inbounds %class.JfrThreadLocal, ptr %3, i32 0, i32 8
  %9 = load ptr, ptr %8, align 8
  br label %12

10:                                               ; preds = %1
  %11 = call noundef ptr @_ZNK14JfrThreadLocal19install_stackframesEv(ptr noundef nonnull align 8 dereferenceable(195) %3)
  br label %12

12:                                               ; preds = %10, %7
  %13 = phi ptr [ %9, %7 ], [ %11, %10 ]
  ret ptr %13
}

; Function Attrs: mustprogress nounwind uwtable
define linkonce_odr hidden noundef ptr @_ZNK6Thread16jfr_thread_localEv(ptr noundef nonnull align 8 dereferenceable(888) %0) #1 comdat align 2 {
  %2 = alloca ptr, align 8
  store ptr %0, ptr %2, align 8
  %3 = load ptr, ptr %2, align 8
  %4 = getelementptr inbounds %class.Thread, ptr %3, i32 0, i32 13
  ret ptr %4
}

; Function Attrs: mustprogress nounwind uwtable
define hidden void @_ZN23JfrStackTraceRepository24record_for_leak_profilerEP10JavaThreadi(ptr noundef %0, i32 noundef %1) #1 align 2 {
  %3 = alloca ptr, align 8
  %4 = alloca i32, align 4
  %5 = alloca ptr, align 8
  %6 = alloca %class.JfrStackTrace, align 8
  %7 = alloca i64, align 8
  store ptr %0, ptr %3, align 8
  store i32 %1, ptr %4, align 4
  %8 = load ptr, ptr %3, align 8
  %9 = call noundef ptr @_ZNK6Thread16jfr_thread_localEv(ptr noundef nonnull align 8 dereferenceable(888) %8)
  store ptr %9, ptr %5, align 8
  %10 = load ptr, ptr %5, align 8
  %11 = call noundef ptr @_ZNK14JfrThreadLocal11stackframesEv(ptr noundef nonnull align 8 dereferenceable(195) %10)
  %12 = load ptr, ptr %5, align 8
  %13 = call noundef i32 @_ZNK14JfrThreadLocal10stackdepthEv(ptr noundef nonnull align 8 dereferenceable(195) %12)
  call void @_ZN13JfrStackTraceC1EP13JfrStackFramej(ptr noundef nonnull align 8 dereferenceable(44) %6, ptr noundef %11, i32 noundef %13)
  %14 = load ptr, ptr %3, align 8
  %15 = load i32, ptr %4, align 4
  %16 = call noundef zeroext i1 @_ZN13JfrStackTrace6recordEP10JavaThreadil(ptr noundef nonnull align 8 dereferenceable(44) %6, ptr noundef %14, i32 noundef %15, i64 noundef -1)
  %17 = call noundef i64 @_ZNK13JfrStackTrace4hashEv(ptr noundef nonnull align 8 dereferenceable(44) %6)
  store i64 %17, ptr %7, align 8
  %18 = load i64, ptr %7, align 8
  %19 = icmp ne i64 %18, 0
  br i1 %19, label %20, label %25

20:                                               ; preds = %2
  %21 = load ptr, ptr %5, align 8
  %22 = call noundef nonnull align 8 dereferenceable(16432) ptr @_ZL22leak_profiler_instancev()
  %23 = call noundef i64 @_ZN23JfrStackTraceRepository3addERS_RK13JfrStackTrace(ptr noundef nonnull align 8 dereferenceable(16432) %22, ptr noundef nonnull align 8 dereferenceable(44) %6)
  %24 = load i64, ptr %7, align 8
  call void @_ZN14JfrThreadLocal25set_cached_stack_trace_idEmm(ptr noundef nonnull align 8 dereferenceable(195) %21, i64 noundef %23, i64 noundef %24)
  br label %25

25:                                               ; preds = %20, %2
  call void @_ZN13JfrStackTraceD1Ev(ptr noundef nonnull align 8 dereferenceable(44) %6) #9
  ret void
}