; Function Attrs: mustprogress nounwind uwtable
define hidden void @_ZN23JfrStackTraceRepository24record_for_leak_profilerEP10JavaThreadi(ptr noundef %0, i32 noundef %1) local_unnamed_addr #3 align 2 {
  %3 = alloca %class.JfrStackTrace, align 8
  %4 = getelementptr inbounds i8, ptr %0, i64 584
  %5 = getelementptr inbounds i8, ptr %0, i64 648
  %6 = load ptr, ptr %5, align 8
  %.not.i = icmp eq ptr %6, null
  br i1 %.not.i, label %7, label %_ZNK14JfrThreadLocal11stackframesEv.exit

7:                                                ; preds = %2
  %8 = tail call noundef ptr @_ZNK14JfrThreadLocal19install_stackframesEv(ptr noundef nonnull align 8 dereferenceable(195) %4) #13
  br label %_ZNK14JfrThreadLocal11stackframesEv.exit

_ZNK14JfrThreadLocal11stackframesEv.exit:         ; preds = %2, %7
  %9 = phi ptr [ %8, %7 ], [ %6, %2 ]
  %10 = tail call noundef i32 @_ZNK14JfrThreadLocal10stackdepthEv(ptr noundef nonnull align 8 dereferenceable(195) %4) #13
  call void @_ZN13JfrStackTraceC1EP13JfrStackFramej(ptr noundef nonnull align 8 dereferenceable(44) %3, ptr noundef %9, i32 noundef %10) #13
  %11 = call noundef zeroext i1 @_ZN13JfrStackTrace6recordEP10JavaThreadil(ptr noundef nonnull align 8 dereferenceable(44) %3, ptr noundef nonnull %0, i32 noundef %1, i64 noundef -1) #13
  %12 = getelementptr inbounds i8, ptr %3, i64 24
  %13 = load i64, ptr %12, align 8
  %.not = icmp eq i64 %13, 0
  br i1 %.not, label %22, label %14

14:                                               ; preds = %_ZNK14JfrThreadLocal11stackframesEv.exit
  %15 = load ptr, ptr @_ZL23_leak_profiler_instance, align 8
  %16 = call noundef i64 @_ZN23JfrStackTraceRepository9add_traceERK13JfrStackTrace(ptr noundef nonnull align 8 dereferenceable(16432) %15, ptr noundef nonnull align 8 dereferenceable(44) %3)
  %17 = icmp eq i64 %16, 0
  br i1 %17, label %18, label %_ZN23JfrStackTraceRepository3addERS_RK13JfrStackTrace.exit

18:                                               ; preds = %14
  call void @_ZNK13JfrStackTrace15resolve_linenosEv(ptr noundef nonnull align 8 dereferenceable(44) %3) #13
  %19 = call noundef i64 @_ZN23JfrStackTraceRepository9add_traceERK13JfrStackTrace(ptr noundef nonnull align 8 dereferenceable(16432) %15, ptr noundef nonnull align 8 dereferenceable(44) %3)
  br label %_ZN23JfrStackTraceRepository3addERS_RK13JfrStackTrace.exit

_ZN23JfrStackTraceRepository3addERS_RK13JfrStackTrace.exit: ; preds = %14, %18
  %.0.i = phi i64 [ %19, %18 ], [ %16, %14 ]
  %20 = getelementptr inbounds i8, ptr %0, i64 704
  store i64 %.0.i, ptr %20, align 8
  %21 = getelementptr inbounds i8, ptr %0, i64 712
  store i64 %13, ptr %21, align 8
  br label %22

22:                                               ; preds = %_ZN23JfrStackTraceRepository3addERS_RK13JfrStackTrace.exit, %_ZNK14JfrThreadLocal11stackframesEv.exit
  call void @_ZN13JfrStackTraceD1Ev(ptr noundef nonnull align 8 dereferenceable(44) %3) #13
  ret void
}